; Function Attrs: mustprogress uwtable
define dso_local noundef i32 @_Z12channelCountRKN7Imf_3_46HeaderE(ptr noundef nonnull align 8 dereferenceable(49) %0) local_unnamed_addr #4 {
  %2 = tail call noundef nonnull align 8 dereferenceable(48) ptr @_ZNK7Imf_3_46Header8channelsEv(ptr noundef nonnull align 8 dereferenceable(49) %0)
  %3 = tail call ptr @_ZNK7Imf_3_411ChannelList5beginEv(ptr noundef nonnull align 8 dereferenceable(48) %2)
  %4 = tail call noundef nonnull align 8 dereferenceable(48) ptr @_ZNK7Imf_3_46Header8channelsEv(ptr noundef nonnull align 8 dereferenceable(49) %0)
  %5 = tail call ptr @_ZNK7Imf_3_411ChannelList3endEv(ptr noundef nonnull align 8 dereferenceable(48) %4)
  %.not5 = icmp eq ptr %3, %5
  br i1 %.not5, label %._crit_edge, label %.lr.ph

._crit_edge:                                      ; preds = %.lr.ph, %1
  %.0.lcssa = phi i32 [ 0, %1 ], [ %6, %.lr.ph ]
  ret i32 %.0.lcssa

.lr.ph:                                           ; preds = %1, %.lr.ph
  %.07 = phi i32 [ %6, %.lr.ph ], [ 0, %1 ]
  %.sroa.03.06 = phi ptr [ %7, %.lr.ph ], [ %3, %1 ]
  %6 = add nuw nsw i32 %.07, 1
  %7 = tail call noundef ptr @_ZSt18_Rb_tree_incrementPKSt18_Rb_tree_node_base(ptr noundef %.sroa.03.06) #28
  %8 = tail call noundef nonnull align 8 dereferenceable(48) ptr @_ZNK7Imf_3_46Header8channelsEv(ptr noundef nonnull align 8 dereferenceable(49) %0)
  %9 = tail call ptr @_ZNK7Imf_3_411ChannelList3endEv(ptr noundef nonnull align 8 dereferenceable(48) %8)
  %.not = icmp eq ptr %7, %9
  br i1 %.not, label %._crit_edge, label %.lr.ph, !llvm.loop !16
}